Certificate:
    Data:
        Version: 3 (0x2)
        Serial Number:
            dc:3d:93:4a:e4:54:b3:7c
    Signature Algorithm: sha256WithRSAEncryption
        Issuer: C=ES, ST=Barcelona, L=Barcelona, O=Barcelona, OU=Escola del treball, CN=veritat/emailAddress=veritat@edt.org
        Validity
            Not Before: Feb 15 08:00:00 2018 GMT
            Not After : Mar 15 08:00:00 2018 GMT
        Subject: C=ES, ST=Barcelona, O=Barcelona, OU=Barcelona, CN=pere/emailAddress=pere@edt.org
        Subject Public Key Info:
            Public Key Algorithm: rsaEncryption
                Public-Key: (2048 bit)
                Modulus:
                    00:d6:30:26:83:9f:9e:38:ad:3a:51:d8:3b:b5:d7:
                    35:53:dc:f2:6c:e9:b3:59:05:9f:ad:24:84:c8:f4:
                    e6:25:41:f3:70:da:5c:b2:29:ff:af:48:ac:08:6d:
                    9f:2b:ab:10:78:6f:ca:1a:79:e0:42:fd:ca:b8:84:
                    89:6b:bb:7a:31:4c:50:fe:da:a5:30:d4:f3:57:a5:
                    85:29:84:bf:f7:42:ca:98:3a:92:3c:5f:ba:18:3e:
                    83:f5:02:b7:d5:37:44:b1:89:57:e4:ed:3d:a5:80:
                    30:a3:f6:c2:11:f1:fd:b9:6e:ab:04:f5:c9:8d:04:
                    f3:ed:4b:14:b6:32:d5:7b:3b:36:42:00:4a:53:ad:
                    da:46:54:e6:ed:b7:63:e6:87:87:1b:c9:1f:52:d8:
                    74:6c:25:ee:7c:54:48:b1:d3:37:89:d3:56:ea:4b:
                    b8:6e:f0:78:3a:ce:b2:43:88:45:4c:60:f5:15:96:
                    ae:53:96:cd:1a:31:6c:64:9d:b2:d0:92:7f:8c:b4:
                    0e:b0:82:24:f7:4c:a0:db:bf:33:ef:94:8f:ab:7d:
                    6a:81:a7:d8:3c:81:92:62:3e:73:3f:47:51:76:3f:
                    6f:47:d7:14:5c:13:3c:05:17:3f:d9:29:38:9a:73:
                    26:79:96:3a:74:53:27:68:18:19:67:94:f9:bf:8e:
                    66:69
                Exponent: 65537 (0x10001)
        X509v3 extensions:
            X509v3 Basic Constraints: 
                CA:FALSE
            Netscape Comment: 
                OpenSSL Generated Certificate
            X509v3 Subject Key Identifier: 
                26:A5:81:31:29:E2:63:BE:7F:AB:DC:02:CE:F5:F8:FD:DA:32:7E:3B
            X509v3 Authority Key Identifier: 
                keyid:EF:5B:CB:55:E0:2E:3F:20:69:7E:19:76:CF:BF:82:24:9C:E0:EC:E3

    Signature Algorithm: sha256WithRSAEncryption
         82:e8:f6:f5:fc:ba:33:74:5b:e5:47:ed:97:ec:2c:1c:66:9b:
         74:2e:31:3a:82:c2:5f:14:be:8e:32:88:b5:96:90:1c:8f:b6:
         a7:00:6b:a0:e4:ad:17:2b:53:ce:23:73:c8:78:db:f9:38:dd:
         93:61:8f:8f:73:78:0e:b6:22:1d:1c:80:47:d0:76:7f:8a:38:
         df:2b:77:07:f3:ee:65:e8:e9:d9:1e:73:f0:c1:a3:95:11:d2:
         32:66:8c:09:1e:3f:79:be:d6:f2:a4:3a:00:42:41:f9:93:7e:
         f8:2d:f6:ad:62:ee:e1:7c:bf:47:e6:41:75:57:e7:72:31:a2:
         2e:00:92:08:f4:cd:e2:52:1e:69:1f:65:e3:cb:44:56:f3:0a:
         9e:92:14:9c:35:7a:8e:a9:ad:d4:d6:1a:43:51:3d:3f:a0:50:
         0c:f2:6a:95:c3:0c:bb:36:eb:8b:76:95:f4:50:01:5f:d1:dc:
         b0:c0:76:30:ed:70:4f:70:fe:14:73:b4:c4:eb:43:dd:06:a5:
         a2:6b:f5:08:ab:58:04:ae:6d:35:c7:6c:6e:5b:26:41:2f:00:
         03:ef:4f:55:74:b7:ea:76:d9:79:d3:c2:92:27:48:c3:8d:24:
         5f:85:ec:0b:f3:5b:41:df:3b:ac:f8:56:b2:a7:20:bb:ca:d7:
         13:13:f1:2d
-----BEGIN CERTIFICATE-----
MIIEDDCCAvSgAwIBAgIJANw9k0rkVLN8MA0GCSqGSIb3DQEBCwUAMIGYMQswCQYD
VQQGEwJFUzESMBAGA1UECAwJQmFyY2Vsb25hMRIwEAYDVQQHDAlCYXJjZWxvbmEx
EjAQBgNVBAoMCUJhcmNlbG9uYTEbMBkGA1UECwwSRXNjb2xhIGRlbCB0cmViYWxs
MRAwDgYDVQQDDAd2ZXJpdGF0MR4wHAYJKoZIhvcNAQkBFg92ZXJpdGF0QGVkdC5v
cmcwHhcNMTgwMjE1MDgwMDAwWhcNMTgwMzE1MDgwMDAwWjB1MQswCQYDVQQGEwJF
UzESMBAGA1UECAwJQmFyY2Vsb25hMRIwEAYDVQQKDAlCYXJjZWxvbmExEjAQBgNV
BAsMCUJhcmNlbG9uYTENMAsGA1UEAwwEcGVyZTEbMBkGCSqGSIb3DQEJARYMcGVy
ZUBlZHQub3JnMIIBIjANBgkqhkiG9w0BAQEFAAOCAQ8AMIIBCgKCAQEA1jAmg5+e
OK06Udg7tdc1U9zybOmzWQWfrSSEyPTmJUHzcNpcsin/r0isCG2fK6sQeG/KGnng
Qv3KuISJa7t6MUxQ/tqlMNTzV6WFKYS/90LKmDqSPF+6GD6D9QK31TdEsYlX5O09
pYAwo/bCEfH9uW6rBPXJjQTz7UsUtjLVezs2QgBKU63aRlTm7bdj5oeHG8kfUth0
bCXufFRIsdM3idNW6ku4bvB4Os6yQ4hFTGD1FZauU5bNGjFsZJ2y0JJ/jLQOsIIk
90yg278z75SPq31qgafYPIGSYj5zP0dRdj9vR9cUXBM8BRc/2Sk4mnMmeZY6dFMn
aBgZZ5T5v45maQIDAQABo3sweTAJBgNVHRMEAjAAMCwGCWCGSAGG+EIBDQQfFh1P
cGVuU1NMIEdlbmVyYXRlZCBDZXJ0aWZpY2F0ZTAdBgNVHQ4EFgQUJqWBMSniY75/
q9wCzvX4/doyfjswHwYDVR0jBBgwFoAU71vLVeAuPyBpfhl2z7+CJJzg7OMwDQYJ
KoZIhvcNAQELBQADggEBAILo9vX8ujN0W+VH7ZfsLBxmm3QuMTqCwl8Uvo4yiLWW
kByPtqcAa6DkrRcrU84jc8h42/k43ZNhj49zeA62Ih0cgEfQdn+KON8rdwfz7mXo
6dkec/DBo5UR0jJmjAkeP3m+1vKkOgBCQfmTfvgt9q1i7uF8v0fmQXVX53Ixoi4A
kgj0zeJSHmkfZePLRFbzCp6SFJw1eo6prdTWGkNRPT+gUAzyapXDDLs264t2lfRQ
AV/R3LDAdjDtcE9w/hRztMTrQ90GpaJr9QirWASubTXHbG5bJkEvAAPvT1V0t+p2
2XnTwpInSMONJF+F7AvzW0HfO6z4VrKnILvK1xMT8S0=
-----END CERTIFICATE-----
